; Function Attrs: mustprogress uwtable
define hidden noundef zeroext i1 @_ZN11OpenImageIO6v3_1_011CineonInput5closeEv(ptr noundef nonnull align 8 captures(none) dereferenceable(2296) %0) unnamed_addr #5 align 2 personality ptr @__gxx_personality_v0 {
  %2 = getelementptr inbounds nuw i8, ptr %0, i64 184
  %3 = load ptr, ptr %2, align 8, !tbaa !6
  %.not.i = icmp eq ptr %3, null
  br i1 %.not.i, label %15, label %4

4:                                                ; preds = %1
  %5 = load ptr, ptr %3, align 8, !tbaa !3
  %6 = getelementptr inbounds nuw i8, ptr %5, i64 24
  %7 = load ptr, ptr %6, align 8
  tail call void %7(ptr noundef nonnull align 8 dereferenceable(16) %3)
  %8 = load ptr, ptr %2, align 8, !tbaa !6
  %9 = icmp eq ptr %8, null
  br i1 %9, label %14, label %10

10:                                               ; preds = %4
  %11 = load ptr, ptr %8, align 8, !tbaa !3
  %12 = getelementptr inbounds nuw i8, ptr %11, i64 8
  %13 = load ptr, ptr %12, align 8
  tail call void %13(ptr noundef nonnull align 8 dereferenceable(16) %8) #25
  br label %14

14:                                               ; preds = %10, %4
  store ptr null, ptr %2, align 8, !tbaa !6
  br label %15

15:                                               ; preds = %14, %1
  %16 = getelementptr inbounds nuw i8, ptr %0, i64 2272
  %17 = load ptr, ptr %16, align 8, !tbaa !53
  %18 = getelementptr inbounds nuw i8, ptr %0, i64 2280
  %19 = load ptr, ptr %18, align 8, !tbaa !54
  %.not.i.i.i = icmp eq ptr %19, %17
  br i1 %.not.i.i.i, label %_ZN11OpenImageIO6v3_1_011CineonInput4initEv.exit, label %20

20:                                               ; preds = %15
  store ptr %17, ptr %18, align 8, !tbaa !54
  br label %_ZN11OpenImageIO6v3_1_011CineonInput4initEv.exit

_ZN11OpenImageIO6v3_1_011CineonInput4initEv.exit: ; preds = %15, %20
  ret i1 true
}